; Function Attrs: mustprogress nounwind uwtable
define dso_local void @_ZN3net18ReliableQuicStreamD2Ev(ptr noundef nonnull align 8 dereferenceable(377) %this) unnamed_addr #0 align 2 personality ptr @__gxx_personality_v0 {
entry:
  store ptr getelementptr inbounds ({ [17 x ptr] }, ptr @_ZTVN3net18ReliableQuicStreamE, i64 0, i32 0, i64 2), ptr %this, align 8
  %sequencer_ = getelementptr inbounds i8, ptr %this, i64 40
  tail call void @_ZN3net19QuicStreamSequencerD1Ev(ptr noundef nonnull align 8 dereferenceable(169) %sequencer_) #15
  %queued_data_ = getelementptr inbounds i8, ptr %this, i64 8
  %0 = load ptr, ptr %queued_data_, align 8
  %cmp.not4.i.i.i = icmp eq ptr %0, %queued_data_
  br i1 %cmp.not4.i.i.i, label %_ZNSt7__cxx114listIN3net18ReliableQuicStream11PendingDataESaIS3_EED2Ev.exit, label %while.body.i.i.i

while.body.i.i.i:                                 ; preds = %entry, %_ZNSt16allocator_traitsISaISt10_List_nodeIN3net18ReliableQuicStream11PendingDataEEEE7destroyIS3_EEvRS5_PT_.exit.i.i.i
  %__cur.05.i.i.i = phi ptr [ %1, %_ZNSt16allocator_traitsISaISt10_List_nodeIN3net18ReliableQuicStream11PendingDataEEEE7destroyIS3_EEvRS5_PT_.exit.i.i.i ], [ %0, %entry ]
  %1 = load ptr, ptr %__cur.05.i.i.i, align 8
  %_M_storage.i.i.i.i = getelementptr inbounds i8, ptr %__cur.05.i.i.i, i64 16
  %ack_listener.i.i.i.i.i.i = getelementptr inbounds i8, ptr %__cur.05.i.i.i, i64 56
  %2 = load ptr, ptr %ack_listener.i.i.i.i.i.i, align 8
  %tobool.not.i.i.i.i.i.i.i = icmp eq ptr %2, null
  br i1 %tobool.not.i.i.i.i.i.i.i, label %_ZNSt16allocator_traitsISaISt10_List_nodeIN3net18ReliableQuicStream11PendingDataEEEE7destroyIS3_EEvRS5_PT_.exit.i.i.i, label %if.then.i.i.i.i.i.i.i

if.then.i.i.i.i.i.i.i:                            ; preds = %while.body.i.i.i
  %add.ptr.i.i.i.i.i.i.i.i = getelementptr inbounds i8, ptr %2, i64 8
  %3 = load i32, ptr %add.ptr.i.i.i.i.i.i.i.i, align 4
  %dec.i.i.i.i.i.i.i.i.i.i = add nsw i32 %3, -1
  store i32 %dec.i.i.i.i.i.i.i.i.i.i, ptr %add.ptr.i.i.i.i.i.i.i.i, align 4
  %cmp.i.i.i.i.i.i.i.i.i.i = icmp eq i32 %dec.i.i.i.i.i.i.i.i.i.i, 0
  br i1 %cmp.i.i.i.i.i.i.i.i.i.i, label %delete.notnull.i.i.i.i.i.i.i.i.i, label %_ZNSt16allocator_traitsISaISt10_List_nodeIN3net18ReliableQuicStream11PendingDataEEEE7destroyIS3_EEvRS5_PT_.exit.i.i.i

delete.notnull.i.i.i.i.i.i.i.i.i:                 ; preds = %if.then.i.i.i.i.i.i.i
  %vtable.i.i.i.i.i.i.i.i.i = load ptr, ptr %2, align 8
  %vfn.i.i.i.i.i.i.i.i.i = getelementptr inbounds i8, ptr %vtable.i.i.i.i.i.i.i.i.i, i64 24
  %4 = load ptr, ptr %vfn.i.i.i.i.i.i.i.i.i, align 8
  tail call void %4(ptr noundef nonnull align 8 dereferenceable(12) %2) #15
  br label %_ZNSt16allocator_traitsISaISt10_List_nodeIN3net18ReliableQuicStream11PendingDataEEEE7destroyIS3_EEvRS5_PT_.exit.i.i.i

_ZNSt16allocator_traitsISaISt10_List_nodeIN3net18ReliableQuicStream11PendingDataEEEE7destroyIS3_EEvRS5_PT_.exit.i.i.i: ; preds = %delete.notnull.i.i.i.i.i.i.i.i.i, %if.then.i.i.i.i.i.i.i, %while.body.i.i.i
  tail call void @_ZNSt7__cxx1112basic_stringIcSt11char_traitsIcESaIcEED1Ev(ptr noundef nonnull align 8 dereferenceable(32) %_M_storage.i.i.i.i) #15
  tail call void @_ZdlPv(ptr noundef nonnull %__cur.05.i.i.i) #16
  %cmp.not.i.i.i = icmp eq ptr %1, %queued_data_
  br i1 %cmp.not.i.i.i, label %_ZNSt7__cxx114listIN3net18ReliableQuicStream11PendingDataESaIS3_EED2Ev.exit, label %while.body.i.i.i, !llvm.loop !5

_ZNSt7__cxx114listIN3net18ReliableQuicStream11PendingDataESaIS3_EED2Ev.exit: ; preds = %_ZNSt16allocator_traitsISaISt10_List_nodeIN3net18ReliableQuicStream11PendingDataEEEE7destroyIS3_EEvRS5_PT_.exit.i.i.i, %entry
  ret void
}